; Function Attrs: mustprogress nounwind uwtable
define internal void @_ZN12_GLOBAL__N_115cmQtAutoMocUicT16JobEvalCacheMocTD0Ev(ptr noundef nonnull align 8 dereferenceable(48) %0) unnamed_addr #5 align 2 personality ptr @__gxx_personality_v0 {
  store ptr getelementptr inbounds ({ [5 x ptr] }, ptr @_ZTVN12_GLOBAL__N_115cmQtAutoMocUicT13JobEvalCacheTE, i64 0, i32 0, i64 2), ptr %0, align 8
  %2 = getelementptr inbounds i8, ptr %0, i64 24
  %3 = load ptr, ptr %2, align 8
  %4 = getelementptr inbounds i8, ptr %0, i64 32
  %5 = load ptr, ptr %4, align 8
  %.not4.i.i.i.i.i.i = icmp eq ptr %3, %5
  br i1 %.not4.i.i.i.i.i.i, label %_ZSt8_DestroyIPNSt7__cxx1112basic_stringIcSt11char_traitsIcESaIcEEES5_EvT_S7_RSaIT0_E.exit.i.i.i, label %.lr.ph.i.i.i.i.i.i

.lr.ph.i.i.i.i.i.i:                               ; preds = %1, %.lr.ph.i.i.i.i.i.i
  %.05.i.i.i.i.i.i = phi ptr [ %6, %.lr.ph.i.i.i.i.i.i ], [ %3, %1 ]
  tail call void @_ZNSt7__cxx1112basic_stringIcSt11char_traitsIcESaIcEED1Ev(ptr noundef nonnull align 8 dereferenceable(32) %.05.i.i.i.i.i.i) #23
  %6 = getelementptr inbounds i8, ptr %.05.i.i.i.i.i.i, i64 32
  %.not.i.i.i.i.i.i = icmp eq ptr %6, %5
  br i1 %.not.i.i.i.i.i.i, label %_ZSt8_DestroyIPNSt7__cxx1112basic_stringIcSt11char_traitsIcESaIcEEES5_EvT_S7_RSaIT0_E.exitthread-pre-split.i.i.i, label %.lr.ph.i.i.i.i.i.i, !llvm.loop !7

_ZSt8_DestroyIPNSt7__cxx1112basic_stringIcSt11char_traitsIcESaIcEEES5_EvT_S7_RSaIT0_E.exitthread-pre-split.i.i.i: ; preds = %.lr.ph.i.i.i.i.i.i
  %.pr.i.i.i = load ptr, ptr %2, align 8
  br label %_ZSt8_DestroyIPNSt7__cxx1112basic_stringIcSt11char_traitsIcESaIcEEES5_EvT_S7_RSaIT0_E.exit.i.i.i

_ZSt8_DestroyIPNSt7__cxx1112basic_stringIcSt11char_traitsIcESaIcEEES5_EvT_S7_RSaIT0_E.exit.i.i.i: ; preds = %_ZSt8_DestroyIPNSt7__cxx1112basic_stringIcSt11char_traitsIcESaIcEEES5_EvT_S7_RSaIT0_E.exitthread-pre-split.i.i.i, %1
  %7 = phi ptr [ %.pr.i.i.i, %_ZSt8_DestroyIPNSt7__cxx1112basic_stringIcSt11char_traitsIcESaIcEEES5_EvT_S7_RSaIT0_E.exitthread-pre-split.i.i.i ], [ %3, %1 ]
  %.not.i.i.i.i.i = icmp eq ptr %7, null
  br i1 %.not.i.i.i.i.i, label %_ZN12_GLOBAL__N_115cmQtAutoMocUicT16JobEvalCacheMocTD2Ev.exit, label %8

8:                                                ; preds = %_ZSt8_DestroyIPNSt7__cxx1112basic_stringIcSt11char_traitsIcESaIcEEES5_EvT_S7_RSaIT0_E.exit.i.i.i
  tail call void @_ZdlPv(ptr noundef nonnull %7) #24
  br label %_ZN12_GLOBAL__N_115cmQtAutoMocUicT16JobEvalCacheMocTD2Ev.exit

_ZN12_GLOBAL__N_115cmQtAutoMocUicT16JobEvalCacheMocTD2Ev.exit: ; preds = %_ZSt8_DestroyIPNSt7__cxx1112basic_stringIcSt11char_traitsIcESaIcEEES5_EvT_S7_RSaIT0_E.exit.i.i.i, %8
  tail call void @_ZN12cmWorkerPool4JobTD2Ev(ptr noundef nonnull align 8 dereferenceable(21) %0) #23
  tail call void @_ZdlPv(ptr noundef nonnull %0) #24
  ret void
}